target datalayout = "e-m:e-p270:32:32-p271:32:32-p272:64:64-i64:64-i128:128-f80:128-n8:16:32:64-S128"
target triple = "x86_64-pc-linux-gnu"

%"class.pybind11::gil_scoped_acquire" = type <{ ptr, i8, i8, [6 x i8] }>

@.str.186 = private unnamed_addr constant [18 x i8] c"1st lock acquired\00", align 1
@.str.187 = private unnamed_addr constant [18 x i8] c"2nd lock acquired\00", align 1

; Function Attrs: mustprogress uwtable
define internal void @_ZL8test_gilv() #4 personality ptr @__gxx_personality_v0 {
  %1 = alloca %"class.pybind11::gil_scoped_acquire", align 8
  %2 = alloca ptr, align 8
  %3 = alloca i32, align 4
  %4 = alloca %"class.pybind11::gil_scoped_acquire", align 8
  call void @llvm.lifetime.start.p0(i64 16, ptr %1) #24
  call void @_ZN8pybind1118gil_scoped_acquireC2Ev(ptr noundef nonnull align 8 dereferenceable(10) %1)
  invoke void @_ZN8pybind115printILNS_19return_value_policyE1EJRA18_KcEEEvDpOT0_(ptr noundef nonnull align 1 dereferenceable(18) @.str.186)
          to label %5 unwind label %7

5:                                                ; preds = %0
  call void @_ZN8pybind1118gil_scoped_acquireD2Ev(ptr noundef nonnull align 8 dereferenceable(10) %1) #24
  call void @llvm.lifetime.end.p0(i64 16, ptr %1) #24
  call void @llvm.lifetime.start.p0(i64 16, ptr %4) #24
  call void @_ZN8pybind1118gil_scoped_acquireC2Ev(ptr noundef nonnull align 8 dereferenceable(10) %4)
  invoke void @_ZN8pybind115printILNS_19return_value_policyE1EJRA18_KcEEEvDpOT0_(ptr noundef nonnull align 1 dereferenceable(18) @.str.187)
          to label %6 unwind label %11

6:                                                ; preds = %5
  call void @_ZN8pybind1118gil_scoped_acquireD2Ev(ptr noundef nonnull align 8 dereferenceable(10) %4) #24
  call void @llvm.lifetime.end.p0(i64 16, ptr %4) #24
  ret void

7:                                                ; preds = %0
  %8 = landingpad { ptr, i32 }
          cleanup
  %9 = extractvalue { ptr, i32 } %8, 0
  store ptr %9, ptr %2, align 8
  %10 = extractvalue { ptr, i32 } %8, 1
  store i32 %10, ptr %3, align 4
  call void @_ZN8pybind1118gil_scoped_acquireD2Ev(ptr noundef nonnull align 8 dereferenceable(10) %1) #24
  call void @llvm.lifetime.end.p0(i64 16, ptr %1) #24
  br label %15

11:                                               ; preds = %5
  %12 = landingpad { ptr, i32 }
          cleanup
  %13 = extractvalue { ptr, i32 } %12, 0
  store ptr %13, ptr %2, align 8
  %14 = extractvalue { ptr, i32 } %12, 1
  store i32 %14, ptr %3, align 4
  call void @_ZN8pybind1118gil_scoped_acquireD2Ev(ptr noundef nonnull align 8 dereferenceable(10) %4) #24
  call void @llvm.lifetime.end.p0(i64 16, ptr %4) #24
  br label %15

15:                                               ; preds = %11, %7
  %16 = load ptr, ptr %2, align 8
  %17 = load i32, ptr %3, align 4
  %18 = insertvalue { ptr, i32 } poison, ptr %16, 0
  %19 = insertvalue { ptr, i32 } %18, i32 %17, 1
  resume { ptr, i32 } %19
}