; Function Attrs: mustprogress uwtable
define internal void @_ZL8test_gilv() #5 personality ptr @__gxx_personality_v0 {
  %1 = alloca %"class.pybind11::gil_scoped_acquire", align 8
  %2 = alloca %"class.pybind11::gil_scoped_acquire", align 8
  call void @llvm.lifetime.start.p0(i64 16, ptr nonnull %1) #31
  call void @_ZN8pybind1118gil_scoped_acquireC2Ev(ptr noundef nonnull align 8 dereferenceable(10) %1)
  invoke void @_ZN8pybind115printILNS_19return_value_policyE1EJRA18_KcEEEvDpOT0_(ptr noundef nonnull align 1 dereferenceable(18) @.str.186)
          to label %3 unwind label %5

3:                                                ; preds = %0
  call void @_ZN8pybind1118gil_scoped_acquireD2Ev(ptr noundef nonnull align 8 dereferenceable(10) %1) #31
  call void @llvm.lifetime.end.p0(i64 16, ptr nonnull %1) #31
  call void @llvm.lifetime.start.p0(i64 16, ptr nonnull %2) #31
  call void @_ZN8pybind1118gil_scoped_acquireC2Ev(ptr noundef nonnull align 8 dereferenceable(10) %2)
  invoke void @_ZN8pybind115printILNS_19return_value_policyE1EJRA18_KcEEEvDpOT0_(ptr noundef nonnull align 1 dereferenceable(18) @.str.187)
          to label %4 unwind label %7

4:                                                ; preds = %3
  call void @_ZN8pybind1118gil_scoped_acquireD2Ev(ptr noundef nonnull align 8 dereferenceable(10) %2) #31
  call void @llvm.lifetime.end.p0(i64 16, ptr nonnull %2) #31
  ret void

5:                                                ; preds = %0
  %6 = landingpad { ptr, i32 }
          cleanup
  call void @_ZN8pybind1118gil_scoped_acquireD2Ev(ptr noundef nonnull align 8 dereferenceable(10) %1) #31
  call void @llvm.lifetime.end.p0(i64 16, ptr nonnull %1) #31
  br label %9

7:                                                ; preds = %3
  %8 = landingpad { ptr, i32 }
          cleanup
  call void @_ZN8pybind1118gil_scoped_acquireD2Ev(ptr noundef nonnull align 8 dereferenceable(10) %2) #31
  call void @llvm.lifetime.end.p0(i64 16, ptr nonnull %2) #31
  br label %9

9:                                                ; preds = %7, %5
  %.pn = phi { ptr, i32 } [ %8, %7 ], [ %6, %5 ]
  resume { ptr, i32 } %.pn
}